target datalayout = "e-m:e-p270:32:32-p271:32:32-p272:64:64-i64:64-i128:128-f80:128-n8:16:32:64-S128"
target triple = "x86_64-pc-linux-gnu"

%struct.SDL_Window = type { i32, ptr, ptr, i32, i32, i32, i32, i32, i32, i32, i32, float, float, i32, i32, i64, i64, float, i8, i8, i32, i32, %struct.SDL_Rect, %struct.SDL_Rect, %struct.SDL_Rect, i8, i8, i8, %struct.SDL_DisplayMode, %struct.SDL_DisplayMode, %struct.SDL_HDROutputProperties, float, ptr, i8, i8, i8, i8, i8, i8, i8, i8, i8, i32, i32, i32, i32, %struct.SDL_Rect, i32, i8, %struct.SDL_Rect, i32, %struct.SDL_Rect, ptr, ptr, i32, float, i32, i32, ptr, ptr, ptr, ptr, ptr, ptr, ptr, ptr, ptr }
%struct.SDL_DisplayMode = type { i32, i32, i32, i32, float, float, i32, i32, ptr }
%struct.SDL_HDROutputProperties = type { float, float }
%struct.SDL_Rect = type { i32, i32, i32, i32 }

@.str.1 = private unnamed_addr constant [41 x i8] c"Video subsystem has not been initialized\00", align 1
@_this = internal global ptr null, align 8
@.str.20 = private unnamed_addr constant [15 x i8] c"Invalid window\00", align 1
@.str.22 = private unnamed_addr constant [35 x i8] c"Operation invalid on popup windows\00", align 1

; Function Attrs: nounwind uwtable
define hidden zeroext i1 @SDL_UninitializedVideo() #0 {
  %1 = call zeroext i1 (ptr, ...) @SDL_SetError_REAL(ptr noundef @.str.1)
  ret i1 %1
}

; Function Attrs: nounwind uwtable
define hidden zeroext i1 @SDL_SetWindowKeyboardGrab_REAL(ptr noundef %0, i1 noundef zeroext %1) #0 {
  %3 = alloca i1, align 1
  %4 = alloca ptr, align 8
  %5 = alloca i8, align 1
  store ptr %0, ptr %4, align 8
  %6 = zext i1 %1 to i8
  store i8 %6, ptr %5, align 1
  %7 = load ptr, ptr @_this, align 8
  %8 = icmp ne ptr %7, null
  br i1 %8, label %11, label %9

9:                                                ; preds = %2
  %10 = call zeroext i1 @SDL_UninitializedVideo()
  store i1 false, ptr %3, align 1
  br label %85

11:                                               ; preds = %2
  %12 = load ptr, ptr %4, align 8
  %13 = call zeroext i1 @SDL_ObjectValid(ptr noundef %12, i32 noundef 1)
  br i1 %13, label %16, label %14

14:                                               ; preds = %11
  %15 = call zeroext i1 (ptr, ...) @SDL_SetError_REAL(ptr noundef @.str.20)
  store i1 false, ptr %3, align 1
  br label %85

16:                                               ; preds = %11
  %17 = load ptr, ptr %4, align 8
  %18 = getelementptr inbounds nuw %struct.SDL_Window, ptr %17, i32 0, i32 15
  %19 = load i64, ptr %18, align 8
  %20 = and i64 %19, 786432
  %21 = icmp ne i64 %20, 0
  br i1 %21, label %22, label %24

22:                                               ; preds = %16
  %23 = call zeroext i1 (ptr, ...) @SDL_SetError_REAL(ptr noundef @.str.22)
  store i1 false, ptr %3, align 1
  br label %85

24:                                               ; preds = %16
  %25 = load ptr, ptr %4, align 8
  %26 = getelementptr inbounds nuw %struct.SDL_Window, ptr %25, i32 0, i32 15
  %27 = load i64, ptr %26, align 8
  %28 = and i64 %27, 8
  %29 = icmp ne i64 %28, 0
  br i1 %29, label %30, label %44

30:                                               ; preds = %24
  %31 = load i8, ptr %5, align 1, !range !5, !noundef !6
  %32 = trunc i8 %31 to i1
  br i1 %32, label %33, label %38

33:                                               ; preds = %30
  %34 = load ptr, ptr %4, align 8
  %35 = getelementptr inbounds nuw %struct.SDL_Window, ptr %34, i32 0, i32 16
  %36 = load i64, ptr %35, align 8
  %37 = or i64 %36, 1048576
  store i64 %37, ptr %35, align 8
  br label %43

38:                                               ; preds = %30
  %39 = load ptr, ptr %4, align 8
  %40 = getelementptr inbounds nuw %struct.SDL_Window, ptr %39, i32 0, i32 16
  %41 = load i64, ptr %40, align 8
  %42 = and i64 %41, -1048577
  store i64 %42, ptr %40, align 8
  br label %43

43:                                               ; preds = %38, %33
  store i1 true, ptr %3, align 1
  br label %85

44:                                               ; preds = %24
  %45 = load i8, ptr %5, align 1, !range !5, !noundef !6
  %46 = trunc i8 %45 to i1
  %47 = xor i1 %46, true
  %48 = xor i1 %47, true
  %49 = zext i1 %48 to i32
  %50 = load ptr, ptr %4, align 8
  %51 = getelementptr inbounds nuw %struct.SDL_Window, ptr %50, i32 0, i32 15
  %52 = load i64, ptr %51, align 8
  %53 = and i64 %52, 1048576
  %54 = icmp ne i64 %53, 0
  %55 = xor i1 %54, true
  %56 = xor i1 %55, true
  %57 = zext i1 %56 to i32
  %58 = icmp eq i32 %49, %57
  br i1 %58, label %59, label %60

59:                                               ; preds = %44
  store i1 true, ptr %3, align 1
  br label %85

60:                                               ; preds = %44
  %61 = load i8, ptr %5, align 1, !range !5, !noundef !6
  %62 = trunc i8 %61 to i1
  br i1 %62, label %63, label %68

63:                                               ; preds = %60
  %64 = load ptr, ptr %4, align 8
  %65 = getelementptr inbounds nuw %struct.SDL_Window, ptr %64, i32 0, i32 15
  %66 = load i64, ptr %65, align 8
  %67 = or i64 %66, 1048576
  store i64 %67, ptr %65, align 8
  br label %73

68:                                               ; preds = %60
  %69 = load ptr, ptr %4, align 8
  %70 = getelementptr inbounds nuw %struct.SDL_Window, ptr %69, i32 0, i32 15
  %71 = load i64, ptr %70, align 8
  %72 = and i64 %71, -1048577
  store i64 %72, ptr %70, align 8
  br label %73

73:                                               ; preds = %68, %63
  %74 = load ptr, ptr %4, align 8
  call void @SDL_UpdateWindowGrab(ptr noundef %74)
  %75 = load i8, ptr %5, align 1, !range !5, !noundef !6
  %76 = trunc i8 %75 to i1
  br i1 %76, label %77, label %84

77:                                               ; preds = %73
  %78 = load ptr, ptr %4, align 8
  %79 = getelementptr inbounds nuw %struct.SDL_Window, ptr %78, i32 0, i32 15
  %80 = load i64, ptr %79, align 8
  %81 = and i64 %80, 1048576
  %82 = icmp ne i64 %81, 0
  br i1 %82, label %84, label %83

83:                                               ; preds = %77
  store i1 false, ptr %3, align 1
  br label %85

84:                                               ; preds = %77, %73
  store i1 true, ptr %3, align 1
  br label %85

85:                                               ; preds = %84, %83, %59, %43, %22, %14, %9
  %86 = load i1, ptr %3, align 1
  ret i1 %86
}