; Function Attrs: nounwind uwtable
define hidden noundef zeroext i1 @SDL_SetWindowKeyboardGrab_REAL(ptr noundef %0, i1 noundef zeroext %1) local_unnamed_addr #0 {
  %3 = load ptr, ptr @_this, align 8
  %.not = icmp eq ptr %3, null
  br i1 %.not, label %4, label %6

4:                                                ; preds = %2
  %5 = tail call zeroext i1 (ptr, ...) @SDL_SetError_REAL(ptr noundef nonnull @.str.1) #19
  br label %36

6:                                                ; preds = %2
  %7 = tail call zeroext i1 @SDL_ObjectValid(ptr noundef %0, i32 noundef 1) #19
  br i1 %7, label %10, label %8

8:                                                ; preds = %6
  %9 = tail call zeroext i1 (ptr, ...) @SDL_SetError_REAL(ptr noundef nonnull @.str.20) #19
  br label %36

10:                                               ; preds = %6
  %11 = getelementptr inbounds nuw i8, ptr %0, i64 72
  %12 = load i64, ptr %11, align 8
  %13 = and i64 %12, 786432
  %.not14 = icmp eq i64 %13, 0
  br i1 %.not14, label %16, label %14

14:                                               ; preds = %10
  %15 = tail call zeroext i1 (ptr, ...) @SDL_SetError_REAL(ptr noundef nonnull @.str.22) #19
  br label %36

16:                                               ; preds = %10
  %17 = and i64 %12, 8
  %.not15 = icmp eq i64 %17, 0
  br i1 %.not15, label %25, label %18

18:                                               ; preds = %16
  %19 = getelementptr inbounds nuw i8, ptr %0, i64 80
  %20 = load i64, ptr %19, align 8
  br i1 %1, label %21, label %23

21:                                               ; preds = %18
  %22 = or i64 %20, 1048576
  store i64 %22, ptr %19, align 8
  br label %36

23:                                               ; preds = %18
  %24 = and i64 %20, -1048577
  store i64 %24, ptr %19, align 8
  br label %36

25:                                               ; preds = %16
  %26 = and i64 %12, 1048576
  %27 = icmp eq i64 %26, 0
  %28 = xor i1 %1, %27
  br i1 %28, label %36, label %29

29:                                               ; preds = %25
  %30 = and i64 %12, -1835017
  %31 = or i64 %12, 1048576
  %storemerge = select i1 %1, i64 %31, i64 %30
  store i64 %storemerge, ptr %11, align 8
  tail call void @SDL_UpdateWindowGrab(ptr noundef nonnull %0)
  br i1 %1, label %32, label %35

32:                                               ; preds = %29
  %33 = load i64, ptr %11, align 8
  %34 = and i64 %33, 1048576
  %.not16 = icmp eq i64 %34, 0
  br i1 %.not16, label %36, label %35

35:                                               ; preds = %32, %29
  br label %36

36:                                               ; preds = %32, %25, %21, %23, %35, %14, %8, %4
  %.0 = phi i1 [ false, %14 ], [ true, %35 ], [ false, %8 ], [ false, %4 ], [ true, %23 ], [ true, %21 ], [ true, %25 ], [ false, %32 ]
  ret i1 %.0
}